; Function Attrs: mustprogress nounwind uwtable
define void @_ZN5arrow3ipc13StreamDecoderD2Ev(ptr nocapture noundef nonnull align 8 dereferenceable(16) %this) unnamed_addr #1 align 2 {
entry:
  store ptr getelementptr inbounds ({ [4 x ptr] }, ptr @_ZTVN5arrow3ipc13StreamDecoderE, i64 0, i32 0, i64 2), ptr %this, align 8
  %impl_ = getelementptr inbounds i8, ptr %this, i64 8
  %0 = load ptr, ptr %impl_, align 8
  %cmp.not.i = icmp eq ptr %0, null
  br i1 %cmp.not.i, label %_ZNSt10unique_ptrIN5arrow3ipc13StreamDecoder17StreamDecoderImplESt14default_deleteIS3_EED2Ev.exit, label %_ZNKSt14default_deleteIN5arrow3ipc13StreamDecoder17StreamDecoderImplEEclEPS3_.exit.i

_ZNKSt14default_deleteIN5arrow3ipc13StreamDecoder17StreamDecoderImplEEclEPS3_.exit.i: ; preds = %entry
  %vtable.i.i = load ptr, ptr %0, align 8
  %vfn.i.i = getelementptr inbounds i8, ptr %vtable.i.i, i64 8
  %1 = load ptr, ptr %vfn.i.i, align 8
  tail call void %1(ptr noundef nonnull align 8 dereferenceable(264) %0) #30
  br label %_ZNSt10unique_ptrIN5arrow3ipc13StreamDecoder17StreamDecoderImplESt14default_deleteIS3_EED2Ev.exit

_ZNSt10unique_ptrIN5arrow3ipc13StreamDecoder17StreamDecoderImplESt14default_deleteIS3_EED2Ev.exit: ; preds = %entry, %_ZNKSt14default_deleteIN5arrow3ipc13StreamDecoder17StreamDecoderImplEEclEPS3_.exit.i
  store ptr null, ptr %impl_, align 8
  ret void
}